; Function Attrs: mustprogress nounwind uwtable
define internal void @_ZN12_GLOBAL__N_125ExplicitRewriteDescriptorILN4llvm14SymbolRewriter17RewriteDescriptor4TypeE1ENS1_8FunctionEXadL_ZNKS1_6Module11getFunctionENS1_9StringRefEEEED0Ev(ptr noundef nonnull align 8 dereferenceable(80) %0) unnamed_addr #0 align 2 {
  store ptr getelementptr inbounds inrange(-16, 24) (i8, ptr @_ZTVN12_GLOBAL__N_125ExplicitRewriteDescriptorILN4llvm14SymbolRewriter17RewriteDescriptor4TypeE1ENS1_8FunctionEXadL_ZNKS1_6Module11getFunctionENS1_9StringRefEEEEE, i64 16), ptr %0, align 8
  %2 = getelementptr inbounds nuw i8, ptr %0, i64 48
  tail call void @_ZNSt7__cxx1112basic_stringIcSt11char_traitsIcESaIcEED1Ev(ptr noundef nonnull align 8 dereferenceable(32) %2) #16
  %3 = getelementptr inbounds nuw i8, ptr %0, i64 16
  tail call void @_ZNSt7__cxx1112basic_stringIcSt11char_traitsIcESaIcEED1Ev(ptr noundef nonnull align 8 dereferenceable(32) %3) #16
  tail call void @_ZdlPvm(ptr noundef nonnull %0, i64 noundef 80) #17
  ret void
}